; Function Attrs: nounwind uwtable
define range(i32 0, 2) i32 @Sbl_ManEvaluateMappingEdge(ptr noundef captures(none) %0, i32 noundef %1) local_unnamed_addr #0 {
  %3 = alloca %struct.timespec, align 8
  %4 = alloca %struct.timespec, align 8
  call void @llvm.lifetime.start.p0(i64 16, ptr nonnull %4)
  %5 = call i32 @clock_gettime(i32 noundef 1, ptr noundef nonnull %4) #18
  %6 = icmp slt i32 %5, 0
  br i1 %6, label %Abc_Clock.exit, label %7

7:                                                ; preds = %2
  %8 = load i64, ptr %4, align 8
  %.neg24 = mul i64 %8, -1000000
  %9 = getelementptr inbounds nuw i8, ptr %4, i64 8
  %10 = load i64, ptr %9, align 8
  %.neg = sdiv i64 %10, -1000
  %.neg25 = add i64 %.neg, %.neg24
  br label %Abc_Clock.exit

Abc_Clock.exit:                                   ; preds = %2, %7
  %.0.i.neg = phi i64 [ %.neg25, %7 ], [ 1, %2 ]
  call void @llvm.lifetime.end.p0(i64 16, ptr nonnull %4)
  %11 = getelementptr inbounds nuw i8, ptr %0, i64 176
  %12 = load ptr, ptr %11, align 8
  %13 = getelementptr inbounds nuw i8, ptr %12, i64 4
  store i32 0, ptr %13, align 4
  call void @Sbl_ManGetCurrentMapping(ptr noundef %0)
  %14 = getelementptr inbounds nuw i8, ptr %0, i64 96
  %15 = load ptr, ptr %14, align 8
  %16 = getelementptr inbounds nuw i8, ptr %0, i64 104
  %17 = load ptr, ptr %16, align 8
  %18 = getelementptr inbounds nuw i8, ptr %0, i64 112
  %19 = load ptr, ptr %18, align 8
  %20 = getelementptr inbounds nuw i8, ptr %0, i64 168
  %21 = load ptr, ptr %20, align 8
  %22 = getelementptr inbounds nuw i8, ptr %0, i64 320
  %23 = load ptr, ptr %22, align 8
  %24 = call i32 @Gia_ManEvalWindow(ptr noundef %15, ptr noundef %17, ptr noundef %19, ptr noundef %21, ptr noundef %23, i32 noundef 1) #18
  call void @llvm.lifetime.start.p0(i64 16, ptr nonnull %3)
  %25 = call i32 @clock_gettime(i32 noundef 1, ptr noundef nonnull %3) #18
  %26 = icmp slt i32 %25, 0
  br i1 %26, label %Abc_Clock.exit23, label %27

27:                                               ; preds = %Abc_Clock.exit
  %28 = load i64, ptr %3, align 8
  %29 = mul nsw i64 %28, 1000000
  %30 = getelementptr inbounds nuw i8, ptr %3, i64 8
  %31 = load i64, ptr %30, align 8
  %32 = sdiv i64 %31, 1000
  %33 = add nsw i64 %32, %29
  br label %Abc_Clock.exit23

Abc_Clock.exit23:                                 ; preds = %Abc_Clock.exit, %27
  %.0.i22 = phi i64 [ %33, %27 ], [ -1, %Abc_Clock.exit ]
  call void @llvm.lifetime.end.p0(i64 16, ptr nonnull %3)
  %34 = add i64 %.0.i22, %.0.i.neg
  %35 = getelementptr inbounds nuw i8, ptr %0, i64 376
  %36 = load i64, ptr %35, align 8
  %37 = add nsw i64 %34, %36
  store i64 %37, ptr %35, align 8
  %.not = icmp sgt i32 %24, %1
  br i1 %.not, label %.preheader, label %.critedge

.preheader:                                       ; preds = %Abc_Clock.exit23
  %38 = load ptr, ptr %20, align 8
  %39 = getelementptr i8, ptr %38, i64 4
  %.val26 = load i32, ptr %39, align 4
  %40 = icmp sgt i32 %.val26, 0
  br i1 %40, label %.lr.ph, label %.critedge

.lr.ph:                                           ; preds = %.preheader, %80
  %41 = phi ptr [ %81, %80 ], [ %38, %.preheader ]
  %indvars.iv = phi i64 [ %indvars.iv.next, %80 ], [ 0, %.preheader ]
  %42 = getelementptr i8, ptr %41, i64 8
  %.val20 = load ptr, ptr %42, align 8
  %43 = getelementptr %struct.Vec_Int_t_, ptr %.val20, i64 %indvars.iv, i32 1
  %.val21 = load i32, ptr %43, align 4
  %44 = icmp sgt i32 %.val21, 0
  br i1 %44, label %45, label %80

45:                                               ; preds = %.lr.ph
  %46 = load ptr, ptr %11, align 8
  %47 = getelementptr inbounds nuw i8, ptr %46, i64 4
  %48 = load i32, ptr %47, align 4
  %49 = load i32, ptr %46, align 8
  %50 = icmp eq i32 %48, %49
  br i1 %50, label %51, label %.Vec_IntGrow.exit10_crit_edge.i

.Vec_IntGrow.exit10_crit_edge.i:                  ; preds = %45
  %.phi.trans.insert.i = getelementptr inbounds nuw i8, ptr %46, i64 8
  %.pre.i = load ptr, ptr %.phi.trans.insert.i, align 8
  br label %Vec_IntPush.exit

51:                                               ; preds = %45
  %52 = icmp slt i32 %48, 16
  br i1 %52, label %53, label %61

53:                                               ; preds = %51
  %54 = getelementptr inbounds nuw i8, ptr %46, i64 8
  %55 = load ptr, ptr %54, align 8
  %.not9.i.i = icmp eq ptr %55, null
  br i1 %.not9.i.i, label %58, label %56

56:                                               ; preds = %53
  %57 = call dereferenceable_or_null(64) ptr @realloc(ptr noundef nonnull %55, i64 noundef 64) #20
  br label %Vec_IntGrow.exit.i

58:                                               ; preds = %53
  %59 = call noalias dereferenceable_or_null(64) ptr @malloc(i64 noundef 64) #19
  br label %Vec_IntGrow.exit.i

Vec_IntGrow.exit.i:                               ; preds = %58, %56
  %60 = phi ptr [ %57, %56 ], [ %59, %58 ]
  store ptr %60, ptr %54, align 8
  store i32 16, ptr %46, align 8
  br label %Vec_IntPush.exit

61:                                               ; preds = %51
  %62 = shl nuw nsw i32 %48, 1
  %63 = getelementptr inbounds nuw i8, ptr %46, i64 8
  %64 = load ptr, ptr %63, align 8
  %.not9.i9.i = icmp eq ptr %64, null
  %65 = zext nneg i32 %62 to i64
  %66 = shl nuw nsw i64 %65, 2
  br i1 %.not9.i9.i, label %69, label %67

67:                                               ; preds = %61
  %68 = call ptr @realloc(ptr noundef nonnull %64, i64 noundef %66) #20
  br label %71

69:                                               ; preds = %61
  %70 = call noalias ptr @malloc(i64 noundef %66) #19
  br label %71

71:                                               ; preds = %69, %67
  %72 = phi ptr [ %68, %67 ], [ %70, %69 ]
  store ptr %72, ptr %63, align 8
  store i32 %62, ptr %46, align 8
  br label %Vec_IntPush.exit

Vec_IntPush.exit:                                 ; preds = %.Vec_IntGrow.exit10_crit_edge.i, %Vec_IntGrow.exit.i, %71
  %73 = phi ptr [ %.pre.i, %.Vec_IntGrow.exit10_crit_edge.i ], [ %72, %71 ], [ %60, %Vec_IntGrow.exit.i ]
  %74 = load i32, ptr %47, align 4
  %75 = add nsw i32 %74, 1
  store i32 %75, ptr %47, align 4
  %76 = sext i32 %74 to i64
  %77 = getelementptr inbounds i32, ptr %73, i64 %76
  %indvars.iv.tr = trunc i64 %indvars.iv to i32
  %78 = shl i32 %indvars.iv.tr, 1
  %79 = or disjoint i32 %78, 1
  store i32 %79, ptr %77, align 4
  %.pre = load ptr, ptr %20, align 8
  br label %80

80:                                               ; preds = %.lr.ph, %Vec_IntPush.exit
  %81 = phi ptr [ %41, %.lr.ph ], [ %.pre, %Vec_IntPush.exit ]
  %indvars.iv.next = add nuw nsw i64 %indvars.iv, 1
  %82 = getelementptr i8, ptr %81, i64 4
  %.val = load i32, ptr %82, align 4
  %83 = sext i32 %.val to i64
  %84 = icmp slt i64 %indvars.iv.next, %83
  br i1 %84, label %.lr.ph, label %.critedge, !llvm.loop !23

.critedge:                                        ; preds = %80, %.preheader, %Abc_Clock.exit23
  %.0 = phi i32 [ 1, %Abc_Clock.exit23 ], [ 0, %.preheader ], [ 0, %80 ]
  ret i32 %.0
}